; ModuleID = 'source-C-CXX/12/472.c'
source_filename = "source-C-CXX/12/472.c"
target datalayout = "e-m:e-p270:32:32-p271:32:32-p272:64:64-i64:64-f80:128-n8:16:32:64-S128"
target triple = "x86_64-pc-linux-gnu"

@.str = private unnamed_addr constant [3 x i8] c"%d\00", align 1
@.str.1 = private unnamed_addr constant [4 x i8] c"%d \00", align 1

; Function Attrs: nofree nounwind sspstrong uwtable
define dso_local void @main() local_unnamed_addr #0 {
  %1 = alloca i32, align 4
  %2 = alloca [20000 x i32], align 16
  %3 = bitcast i32* %1 to i8*
  call void @llvm.lifetime.start.p0i8(i64 4, i8* nonnull %3) #3
  %4 = bitcast [20000 x i32]* %2 to i8*
  call void @llvm.lifetime.start.p0i8(i64 80000, i8* nonnull %4) #3
  %5 = call i32 (i8*, ...) @__isoc99_scanf(i8* getelementptr inbounds ([3 x i8], [3 x i8]* @.str, i64 0, i64 0), i32* nonnull %1)
  %6 = load i32, i32* %1, align 4, !tbaa !5
  %7 = icmp sgt i32 %6, 0
  br i1 %7, label %10, label %26

8:                                                ; preds = %10
  %9 = icmp sgt i32 %15, 0
  br i1 %9, label %30, label %26

10:                                               ; preds = %0, %10
  %11 = phi i64 [ %14, %10 ], [ 0, %0 ]
  %12 = getelementptr inbounds [20000 x i32], [20000 x i32]* %2, i64 0, i64 %11
  %13 = call i32 (i8*, ...) @__isoc99_scanf(i8* getelementptr inbounds ([3 x i8], [3 x i8]* @.str, i64 0, i64 0), i32* nonnull %12)
  %14 = add nuw nsw i64 %11, 1
  %15 = load i32, i32* %1, align 4, !tbaa !5
  %16 = sext i32 %15 to i64
  %17 = icmp slt i64 %14, %16
  br i1 %17, label %10, label %8, !llvm.loop !9

18:                                               ; preds = %126
  %19 = sext i32 %127 to i64
  br label %20

20:                                               ; preds = %18, %30
  %21 = phi i64 [ %19, %18 ], [ %35, %30 ]
  %22 = phi i32 [ %127, %18 ], [ %31, %30 ]
  %23 = icmp slt i64 %33, %21
  br i1 %23, label %30, label %24, !llvm.loop !11

24:                                               ; preds = %20
  %25 = icmp sgt i32 %22, 1
  br i1 %25, label %132, label %26

26:                                               ; preds = %0, %8, %24
  %27 = phi i32 [ %22, %24 ], [ %15, %8 ], [ %6, %0 ]
  %28 = add nsw i32 %27, -1
  %29 = sext i32 %28 to i64
  br label %142

30:                                               ; preds = %8, %20
  %31 = phi i32 [ %22, %20 ], [ %15, %8 ]
  %32 = phi i64 [ %33, %20 ], [ 0, %8 ]
  %33 = add nuw nsw i64 %32, 1
  %34 = getelementptr inbounds [20000 x i32], [20000 x i32]* %2, i64 0, i64 %32
  %35 = sext i32 %31 to i64
  %36 = icmp slt i64 %33, %35
  br i1 %36, label %37, label %20

37:                                               ; preds = %30
  %38 = trunc i64 %33 to i32
  br label %39

39:                                               ; preds = %37, %126
  %40 = phi i32 [ %127, %126 ], [ %31, %37 ]
  %41 = phi i32 [ %128, %126 ], [ %31, %37 ]
  %42 = phi i32 [ %130, %126 ], [ %38, %37 ]
  %43 = load i32, i32* %34, align 4, !tbaa !5
  %44 = sext i32 %42 to i64
  %45 = getelementptr inbounds [20000 x i32], [20000 x i32]* %2, i64 0, i64 %44
  %46 = load i32, i32* %45, align 4, !tbaa !5
  %47 = icmp eq i32 %43, %46
  br i1 %47, label %48, label %126

48:                                               ; preds = %39
  %49 = icmp slt i32 %42, %41
  br i1 %49, label %50, label %123

50:                                               ; preds = %48
  %51 = sext i32 %41 to i64
  %52 = sext i32 %41 to i64
  %53 = sub nsw i64 %52, %44
  %54 = icmp ult i64 %53, 8
  br i1 %54, label %114, label %55

55:                                               ; preds = %50
  %56 = and i64 %53, -8
  %57 = add nsw i64 %56, %44
  %58 = add nsw i64 %56, -8
  %59 = lshr exact i64 %58, 3
  %60 = add nuw nsw i64 %59, 1
  %61 = and i64 %60, 1
  %62 = icmp eq i64 %58, 0
  br i1 %62, label %96, label %63

63:                                               ; preds = %55
  %64 = and i64 %60, 4611686018427387902
  br label %65

65:                                               ; preds = %65, %63
  %66 = phi i64 [ 0, %63 ], [ %93, %65 ]
  %67 = phi i64 [ %64, %63 ], [ %94, %65 ]
  %68 = add i64 %66, %44
  %69 = add nsw i64 %68, 1
  %70 = getelementptr inbounds [20000 x i32], [20000 x i32]* %2, i64 0, i64 %69
  %71 = bitcast i32* %70 to <4 x i32>*
  %72 = load <4 x i32>, <4 x i32>* %71, align 4, !tbaa !5
  %73 = getelementptr inbounds i32, i32* %70, i64 4
  %74 = bitcast i32* %73 to <4 x i32>*
  %75 = load <4 x i32>, <4 x i32>* %74, align 4, !tbaa !5
  %76 = getelementptr inbounds [20000 x i32], [20000 x i32]* %2, i64 0, i64 %68
  %77 = bitcast i32* %76 to <4 x i32>*
  store <4 x i32> %72, <4 x i32>* %77, align 4, !tbaa !5
  %78 = getelementptr inbounds i32, i32* %76, i64 4
  %79 = bitcast i32* %78 to <4 x i32>*
  store <4 x i32> %75, <4 x i32>* %79, align 4, !tbaa !5
  %80 = or i64 %66, 8
  %81 = add i64 %80, %44
  %82 = add nsw i64 %81, 1
  %83 = getelementptr inbounds [20000 x i32], [20000 x i32]* %2, i64 0, i64 %82
  %84 = bitcast i32* %83 to <4 x i32>*
  %85 = load <4 x i32>, <4 x i32>* %84, align 4, !tbaa !5
  %86 = getelementptr inbounds i32, i32* %83, i64 4
  %87 = bitcast i32* %86 to <4 x i32>*
  %88 = load <4 x i32>, <4 x i32>* %87, align 4, !tbaa !5
  %89 = getelementptr inbounds [20000 x i32], [20000 x i32]* %2, i64 0, i64 %81
  %90 = bitcast i32* %89 to <4 x i32>*
  store <4 x i32> %85, <4 x i32>* %90, align 4, !tbaa !5
  %91 = getelementptr inbounds i32, i32* %89, i64 4
  %92 = bitcast i32* %91 to <4 x i32>*
  store <4 x i32> %88, <4 x i32>* %92, align 4, !tbaa !5
  %93 = add nuw i64 %66, 16
  %94 = add i64 %67, -2
  %95 = icmp eq i64 %94, 0
  br i1 %95, label %96, label %65, !llvm.loop !12

96:                                               ; preds = %65, %55
  %97 = phi i64 [ 0, %55 ], [ %93, %65 ]
  %98 = icmp eq i64 %61, 0
  br i1 %98, label %112, label %99

99:                                               ; preds = %96
  %100 = add i64 %97, %44
  %101 = add nsw i64 %100, 1
  %102 = getelementptr inbounds [20000 x i32], [20000 x i32]* %2, i64 0, i64 %101
  %103 = bitcast i32* %102 to <4 x i32>*
  %104 = load <4 x i32>, <4 x i32>* %103, align 4, !tbaa !5
  %105 = getelementptr inbounds i32, i32* %102, i64 4
  %106 = bitcast i32* %105 to <4 x i32>*
  %107 = load <4 x i32>, <4 x i32>* %106, align 4, !tbaa !5
  %108 = getelementptr inbounds [20000 x i32], [20000 x i32]* %2, i64 0, i64 %100
  %109 = bitcast i32* %108 to <4 x i32>*
  store <4 x i32> %104, <4 x i32>* %109, align 4, !tbaa !5
  %110 = getelementptr inbounds i32, i32* %108, i64 4
  %111 = bitcast i32* %110 to <4 x i32>*
  store <4 x i32> %107, <4 x i32>* %111, align 4, !tbaa !5
  br label %112

112:                                              ; preds = %96, %99
  %113 = icmp eq i64 %53, %56
  br i1 %113, label %123, label %114

114:                                              ; preds = %50, %112
  %115 = phi i64 [ %44, %50 ], [ %57, %112 ]
  br label %116

116:                                              ; preds = %114, %116
  %117 = phi i64 [ %118, %116 ], [ %115, %114 ]
  %118 = add nsw i64 %117, 1
  %119 = getelementptr inbounds [20000 x i32], [20000 x i32]* %2, i64 0, i64 %118
  %120 = load i32, i32* %119, align 4, !tbaa !5
  %121 = getelementptr inbounds [20000 x i32], [20000 x i32]* %2, i64 0, i64 %117
  store i32 %120, i32* %121, align 4, !tbaa !5
  %122 = icmp eq i64 %118, %51
  br i1 %122, label %123, label %116, !llvm.loop !14

123:                                              ; preds = %116, %112, %48
  %124 = add nsw i32 %42, -1
  %125 = add nsw i32 %41, -1
  store i32 %125, i32* %1, align 4, !tbaa !5
  br label %126

126:                                              ; preds = %39, %123
  %127 = phi i32 [ %125, %123 ], [ %40, %39 ]
  %128 = phi i32 [ %125, %123 ], [ %41, %39 ]
  %129 = phi i32 [ %124, %123 ], [ %42, %39 ]
  %130 = add nsw i32 %129, 1
  %131 = icmp slt i32 %130, %128
  br i1 %131, label %39, label %18, !llvm.loop !16

132:                                              ; preds = %24, %132
  %133 = phi i64 [ %137, %132 ], [ 0, %24 ]
  %134 = getelementptr inbounds [20000 x i32], [20000 x i32]* %2, i64 0, i64 %133
  %135 = load i32, i32* %134, align 4, !tbaa !5
  %136 = call i32 (i8*, ...) @printf(i8* nonnull dereferenceable(1) getelementptr inbounds ([4 x i8], [4 x i8]* @.str.1, i64 0, i64 0), i32 %135)
  %137 = add nuw nsw i64 %133, 1
  %138 = load i32, i32* %1, align 4, !tbaa !5
  %139 = add nsw i32 %138, -1
  %140 = sext i32 %139 to i64
  %141 = icmp slt i64 %137, %140
  br i1 %141, label %132, label %142, !llvm.loop !17

142:                                              ; preds = %132, %26
  %143 = phi i64 [ %29, %26 ], [ %140, %132 ]
  %144 = getelementptr inbounds [20000 x i32], [20000 x i32]* %2, i64 0, i64 %143
  %145 = load i32, i32* %144, align 4, !tbaa !5
  %146 = call i32 (i8*, ...) @printf(i8* nonnull dereferenceable(1) getelementptr inbounds ([3 x i8], [3 x i8]* @.str, i64 0, i64 0), i32 %145)
  call void @llvm.lifetime.end.p0i8(i64 80000, i8* nonnull %4) #3
  call void @llvm.lifetime.end.p0i8(i64 4, i8* nonnull %3) #3
  ret void
}

; Function Attrs: argmemonly mustprogress nofree nosync nounwind willreturn
declare void @llvm.lifetime.start.p0i8(i64 immarg, i8* nocapture) #1

; Function Attrs: nofree nounwind
declare noundef i32 @__isoc99_scanf(i8* nocapture noundef readonly, ...) local_unnamed_addr #2

; Function Attrs: nofree nounwind
declare noundef i32 @printf(i8* nocapture noundef readonly, ...) local_unnamed_addr #2

; Function Attrs: argmemonly mustprogress nofree nosync nounwind willreturn
declare void @llvm.lifetime.end.p0i8(i64 immarg, i8* nocapture) #1


!llvm.module.flags = !{!0, !1, !2, !3}
!llvm.ident = !{!4}

!0 = !{i32 1, !"wchar_size", i32 4}
!1 = !{i32 7, !"PIC Level", i32 2}
!2 = !{i32 7, !"PIE Level", i32 2}
!3 = !{i32 7, !"uwtable", i32 1}
!4 = !{!"clang version 13.0.0"}
!5 = !{!6, !6, i64 0}
!6 = !{!"int", !7, i64 0}
!7 = !{!"omnipotent char", !8, i64 0}
!8 = !{!"Simple C/C++ TBAA"}
!9 = distinct !{!9, !10}
!10 = !{!"llvm.loop.mustprogress"}
!11 = distinct !{!11, !10}
!12 = distinct !{!12, !10, !13}
!13 = !{!"llvm.loop.isvectorized", i32 1}
!14 = distinct !{!14, !10, !15, !13}
!15 = !{!"llvm.loop.unroll.runtime.disable"}
!16 = distinct !{!16, !10}
!17 = distinct !{!17, !10}
